; Function Attrs: nounwind uwtable
define hidden i32 @SSL_CTX_check_private_key(ptr noundef readonly captures(none) %0) local_unnamed_addr #0 {
  %2 = getelementptr inbounds nuw i8, ptr %0, i64 296
  %3 = load ptr, ptr %2, align 8, !tbaa !39
  %4 = load ptr, ptr %3, align 8, !tbaa !167
  %5 = icmp eq ptr %4, null
  br i1 %5, label %6, label %7

6:                                                ; preds = %1
  tail call void @ERR_put_error(i32 noundef 16, i32 noundef 0, i32 noundef 173, ptr noundef nonnull @.str, i32 noundef 1154) #21
  br label %14

7:                                                ; preds = %1
  %8 = getelementptr inbounds nuw i8, ptr %3, i64 8
  %9 = load ptr, ptr %8, align 8, !tbaa !173
  %10 = icmp eq ptr %9, null
  br i1 %10, label %11, label %12

11:                                               ; preds = %7
  tail call void @ERR_put_error(i32 noundef 16, i32 noundef 0, i32 noundef 181, ptr noundef nonnull @.str, i32 noundef 1159) #21
  br label %14

12:                                               ; preds = %7
  %13 = tail call i32 @X509_check_private_key(ptr noundef nonnull %4, ptr noundef nonnull %9) #21
  br label %14

14:                                               ; preds = %12, %11, %6
  %.0 = phi i32 [ 0, %6 ], [ 0, %11 ], [ %13, %12 ]
  ret i32 %.0
}